target datalayout = "e-m:e-p270:32:32-p271:32:32-p272:64:64-i64:64-i128:128-f80:128-n8:16:32:64-S128"
target triple = "x86_64-pc-linux-gnu"

%union.pthread_mutex_t = type { %struct.__pthread_mutex_s }
%struct.__pthread_mutex_s = type { i32, i32, i32, i32, i32, i16, i16, %struct.__pthread_internal_list }
%struct.__pthread_internal_list = type { ptr, ptr }
%struct.persist_msg_t = type { ptr, ptr, i16 }
%struct.persist_rc_msg_t = type { ptr, i16, i32, i16 }
%struct.dbd_usage_msg_t = type { i64, ptr, i64 }
%struct.slurmdb_assoc_rec = type { ptr, ptr, ptr, ptr, ptr, ptr, ptr, i32, i32, i32, i32, i32, ptr, ptr, ptr, ptr, ptr, ptr, i32, i32, i16, ptr, ptr, i32, i32, i32, ptr, ptr, ptr, ptr, ptr, ptr, ptr, ptr, i32, i32, ptr, i32, ptr, i32, ptr, i32, i32, ptr, ptr, ptr }
%struct.slurmdb_wckey_rec_t = type { ptr, ptr, i32, i32, i16, ptr, i32, ptr }
%struct.slurmdb_cluster_rec = type { ptr, i16, i64, %struct.sockaddr_storage, ptr, i32, i16, ptr, i16, %struct.slurmdb_cluster_fed_t, i32, %union.pthread_mutex_t, ptr, ptr, ptr, i16, ptr, ptr }
%struct.sockaddr_storage = type { i16, [118 x i8], i64 }
%struct.slurmdb_cluster_fed_t = type { ptr, i32, ptr, ptr, ptr, i32, i8, i8 }

@plugin_type = dso_local constant [28 x i8] c"accounting_storage/slurmdbd\00", align 16
@.str.7 = private unnamed_addr constant [3 x i8] c"%s\00", align 1
@.str.24 = private unnamed_addr constant [11 x i8] c"%s: %s: %s\00", align 1
@.str.66 = private unnamed_addr constant [22 x i8] c"Unknown usage type %d\00", align 1
@.str.67 = private unnamed_addr constant [15 x i8] c"%s failure: %m\00", align 1
@__func__.acct_storage_p_get_usage = private unnamed_addr constant [25 x i8] c"acct_storage_p_get_usage\00", align 1
@.str.68 = private unnamed_addr constant [38 x i8] c"response type not DBD_GOT_*_USAGE: %u\00", align 1

; Function Attrs: nounwind uwtable
define dso_local i32 @acct_storage_p_get_usage(ptr noundef %0, i32 noundef %1, ptr noundef %2, i32 noundef %3, i64 noundef %4, i64 noundef %5) #0 {
  %7 = alloca i32, align 4
  %8 = alloca ptr, align 8
  %9 = alloca i32, align 4
  %10 = alloca ptr, align 8
  %11 = alloca i32, align 4
  %12 = alloca i64, align 8
  %13 = alloca i64, align 8
  %14 = alloca %struct.persist_msg_t, align 8
  %15 = alloca %struct.persist_msg_t, align 8
  %16 = alloca %struct.dbd_usage_msg_t, align 8
  %17 = alloca ptr, align 8
  %18 = alloca ptr, align 8
  %19 = alloca ptr, align 8
  %20 = alloca ptr, align 8
  %21 = alloca ptr, align 8
  %22 = alloca i32, align 4
  %23 = alloca i32, align 4
  %24 = alloca ptr, align 8
  store ptr %0, ptr %8, align 8
  store i32 %1, ptr %9, align 4
  store ptr %2, ptr %10, align 8
  store i32 %3, ptr %11, align 4
  store i64 %4, ptr %12, align 8
  store i64 %5, ptr %13, align 8
  call void @llvm.lifetime.start.p0(i64 24, ptr %14) #9
  call void @llvm.memset.p0.i64(ptr align 8 %14, i8 0, i64 24, i1 false)
  call void @llvm.lifetime.start.p0(i64 24, ptr %15) #9
  call void @llvm.memset.p0.i64(ptr align 8 %15, i8 0, i64 24, i1 false)
  call void @llvm.lifetime.start.p0(i64 24, ptr %16) #9
  call void @llvm.lifetime.start.p0(i64 8, ptr %17) #9
  call void @llvm.lifetime.start.p0(i64 8, ptr %18) #9
  %25 = load ptr, ptr %10, align 8
  store ptr %25, ptr %18, align 8
  call void @llvm.lifetime.start.p0(i64 8, ptr %19) #9
  %26 = load ptr, ptr %10, align 8
  store ptr %26, ptr %19, align 8
  call void @llvm.lifetime.start.p0(i64 8, ptr %20) #9
  %27 = load ptr, ptr %10, align 8
  store ptr %27, ptr %20, align 8
  call void @llvm.lifetime.start.p0(i64 8, ptr %21) #9
  store ptr null, ptr %21, align 8
  call void @llvm.lifetime.start.p0(i64 4, ptr %22) #9
  call void @llvm.memset.p0.i64(ptr align 8 %16, i8 0, i64 24, i1 false)
  %28 = load ptr, ptr %10, align 8
  %29 = getelementptr inbounds nuw %struct.dbd_usage_msg_t, ptr %16, i32 0, i32 1
  store ptr %28, ptr %29, align 8
  %30 = load i64, ptr %12, align 8
  %31 = getelementptr inbounds nuw %struct.dbd_usage_msg_t, ptr %16, i32 0, i32 2
  store i64 %30, ptr %31, align 8
  %32 = load i64, ptr %13, align 8
  %33 = getelementptr inbounds nuw %struct.dbd_usage_msg_t, ptr %16, i32 0, i32 0
  store i64 %32, ptr %33, align 8
  %34 = load i32, ptr %11, align 4
  %35 = trunc i32 %34 to i16
  %36 = getelementptr inbounds nuw %struct.persist_msg_t, ptr %14, i32 0, i32 2
  store i16 %35, ptr %36, align 8
  %37 = load ptr, ptr %8, align 8
  %38 = getelementptr inbounds nuw %struct.persist_msg_t, ptr %14, i32 0, i32 0
  store ptr %37, ptr %38, align 8
  %39 = load i32, ptr %11, align 4
  switch i32 %39, label %49 [
    i32 1505, label %40
    i32 1411, label %40
    i32 1457, label %43
    i32 1413, label %46
  ]

40:                                               ; preds = %6, %6
  %41 = load ptr, ptr %18, align 8
  %42 = getelementptr inbounds nuw %struct.slurmdb_assoc_rec, ptr %41, i32 0, i32 0
  store ptr %42, ptr %21, align 8
  br label %52

43:                                               ; preds = %6
  %44 = load ptr, ptr %19, align 8
  %45 = getelementptr inbounds nuw %struct.slurmdb_wckey_rec_t, ptr %44, i32 0, i32 0
  store ptr %45, ptr %21, align 8
  br label %52

46:                                               ; preds = %6
  %47 = load ptr, ptr %20, align 8
  %48 = getelementptr inbounds nuw %struct.slurmdb_cluster_rec, ptr %47, i32 0, i32 0
  store ptr %48, ptr %21, align 8
  br label %52

49:                                               ; preds = %6
  %50 = load i32, ptr %11, align 4
  %51 = call i32 (ptr, ...) @slurm_error(ptr noundef @.str.66, i32 noundef %50)
  store i32 -1, ptr %7, align 4
  store i32 1, ptr %23, align 4
  br label %166

52:                                               ; preds = %46, %43, %40
  %53 = getelementptr inbounds nuw %struct.persist_msg_t, ptr %14, i32 0, i32 1
  store ptr %16, ptr %53, align 8
  %54 = call i32 @dbd_conn_send_recv(i16 noundef zeroext 11008, ptr noundef %14, ptr noundef %15)
  store i32 %54, ptr %22, align 4
  %55 = load i32, ptr %22, align 4
  %56 = icmp ne i32 %55, 0
  br i1 %56, label %57, label %61

57:                                               ; preds = %52
  %58 = load i32, ptr %11, align 4
  %59 = call ptr @slurmdbd_msg_type_2_str(i32 noundef %58, i32 noundef 1)
  %60 = call i32 (ptr, ...) @slurm_error(ptr noundef @.str.67, ptr noundef %59)
  br label %164

61:                                               ; preds = %52
  %62 = getelementptr inbounds nuw %struct.persist_msg_t, ptr %15, i32 0, i32 2
  %63 = load i16, ptr %62, align 8
  %64 = zext i16 %63 to i32
  %65 = icmp eq i32 %64, 1433
  br i1 %65, label %66, label %100

66:                                               ; preds = %61
  call void @llvm.lifetime.start.p0(i64 8, ptr %24) #9
  %67 = getelementptr inbounds nuw %struct.persist_msg_t, ptr %15, i32 0, i32 1
  %68 = load ptr, ptr %67, align 8
  store ptr %68, ptr %24, align 8
  %69 = load ptr, ptr %24, align 8
  %70 = getelementptr inbounds nuw %struct.persist_rc_msg_t, ptr %69, i32 0, i32 2
  %71 = load i32, ptr %70, align 4
  %72 = icmp eq i32 %71, 0
  br i1 %72, label %73, label %89

73:                                               ; preds = %66
  br label %74

74:                                               ; preds = %73
  br label %75

75:                                               ; preds = %74
  %76 = call i32 @slurm_get_log_level()
  %77 = icmp sge i32 %76, 3
  br i1 %77, label %78, label %82

78:                                               ; preds = %75
  %79 = load ptr, ptr %24, align 8
  %80 = getelementptr inbounds nuw %struct.persist_rc_msg_t, ptr %79, i32 0, i32 0
  %81 = load ptr, ptr %80, align 8
  call void (i32, ptr, ...) @slurm_log_var(i32 noundef 3, ptr noundef @.str.24, ptr noundef @plugin_type, ptr noundef @__func__.acct_storage_p_get_usage, ptr noundef %81)
  br label %82

82:                                               ; preds = %78, %75
  br label %83

83:                                               ; preds = %82
  br label %84

84:                                               ; preds = %83
  br label %85

85:                                               ; preds = %84
  br label %86

86:                                               ; preds = %85
  %87 = call ptr @slurm_list_create(ptr noundef null)
  %88 = load ptr, ptr %21, align 8
  store ptr %87, ptr %88, align 8
  br label %98

89:                                               ; preds = %66
  %90 = load ptr, ptr %24, align 8
  %91 = getelementptr inbounds nuw %struct.persist_rc_msg_t, ptr %90, i32 0, i32 2
  %92 = load i32, ptr %91, align 4
  %93 = call ptr @__errno_location() #10
  store i32 %92, ptr %93, align 4
  %94 = load ptr, ptr %24, align 8
  %95 = getelementptr inbounds nuw %struct.persist_rc_msg_t, ptr %94, i32 0, i32 0
  %96 = load ptr, ptr %95, align 8
  %97 = call i32 (ptr, ...) @slurm_error(ptr noundef @.str.7, ptr noundef %96)
  br label %98

98:                                               ; preds = %89, %86
  %99 = load ptr, ptr %24, align 8
  call void @slurm_persist_free_rc_msg(ptr noundef %99)
  call void @llvm.lifetime.end.p0(i64 8, ptr %24) #9
  br label %163

100:                                              ; preds = %61
  %101 = getelementptr inbounds nuw %struct.persist_msg_t, ptr %15, i32 0, i32 2
  %102 = load i16, ptr %101, align 8
  %103 = zext i16 %102 to i32
  %104 = icmp ne i32 %103, 1418
  br i1 %104, label %105, label %120

105:                                              ; preds = %100
  %106 = getelementptr inbounds nuw %struct.persist_msg_t, ptr %15, i32 0, i32 2
  %107 = load i16, ptr %106, align 8
  %108 = zext i16 %107 to i32
  %109 = icmp ne i32 %108, 1458
  br i1 %109, label %110, label %120

110:                                              ; preds = %105
  %111 = getelementptr inbounds nuw %struct.persist_msg_t, ptr %15, i32 0, i32 2
  %112 = load i16, ptr %111, align 8
  %113 = zext i16 %112 to i32
  %114 = icmp ne i32 %113, 1420
  br i1 %114, label %115, label %120

115:                                              ; preds = %110
  %116 = getelementptr inbounds nuw %struct.persist_msg_t, ptr %15, i32 0, i32 2
  %117 = load i16, ptr %116, align 8
  %118 = zext i16 %117 to i32
  %119 = call i32 (ptr, ...) @slurm_error(ptr noundef @.str.68, i32 noundef %118)
  br label %162

120:                                              ; preds = %110, %105, %100
  %121 = getelementptr inbounds nuw %struct.persist_msg_t, ptr %15, i32 0, i32 1
  %122 = load ptr, ptr %121, align 8
  store ptr %122, ptr %17, align 8
  %123 = load i32, ptr %11, align 4
  switch i32 %123, label %154 [
    i32 1505, label %124
    i32 1411, label %124
    i32 1457, label %134
    i32 1413, label %144
  ]

124:                                              ; preds = %120, %120
  %125 = load ptr, ptr %17, align 8
  %126 = getelementptr inbounds nuw %struct.dbd_usage_msg_t, ptr %125, i32 0, i32 1
  %127 = load ptr, ptr %126, align 8
  store ptr %127, ptr %18, align 8
  %128 = load ptr, ptr %18, align 8
  %129 = getelementptr inbounds nuw %struct.slurmdb_assoc_rec, ptr %128, i32 0, i32 0
  %130 = load ptr, ptr %129, align 8
  %131 = load ptr, ptr %21, align 8
  store ptr %130, ptr %131, align 8
  %132 = load ptr, ptr %18, align 8
  %133 = getelementptr inbounds nuw %struct.slurmdb_assoc_rec, ptr %132, i32 0, i32 0
  store ptr null, ptr %133, align 8
  br label %157

134:                                              ; preds = %120
  %135 = load ptr, ptr %17, align 8
  %136 = getelementptr inbounds nuw %struct.dbd_usage_msg_t, ptr %135, i32 0, i32 1
  %137 = load ptr, ptr %136, align 8
  store ptr %137, ptr %19, align 8
  %138 = load ptr, ptr %19, align 8
  %139 = getelementptr inbounds nuw %struct.slurmdb_wckey_rec_t, ptr %138, i32 0, i32 0
  %140 = load ptr, ptr %139, align 8
  %141 = load ptr, ptr %21, align 8
  store ptr %140, ptr %141, align 8
  %142 = load ptr, ptr %19, align 8
  %143 = getelementptr inbounds nuw %struct.slurmdb_wckey_rec_t, ptr %142, i32 0, i32 0
  store ptr null, ptr %143, align 8
  br label %157

144:                                              ; preds = %120
  %145 = load ptr, ptr %17, align 8
  %146 = getelementptr inbounds nuw %struct.dbd_usage_msg_t, ptr %145, i32 0, i32 1
  %147 = load ptr, ptr %146, align 8
  store ptr %147, ptr %20, align 8
  %148 = load ptr, ptr %20, align 8
  %149 = getelementptr inbounds nuw %struct.slurmdb_cluster_rec, ptr %148, i32 0, i32 0
  %150 = load ptr, ptr %149, align 8
  %151 = load ptr, ptr %21, align 8
  store ptr %150, ptr %151, align 8
  %152 = load ptr, ptr %20, align 8
  %153 = getelementptr inbounds nuw %struct.slurmdb_cluster_rec, ptr %152, i32 0, i32 0
  store ptr null, ptr %153, align 8
  br label %157

154:                                              ; preds = %120
  %155 = load i32, ptr %11, align 4
  %156 = call i32 (ptr, ...) @slurm_error(ptr noundef @.str.66, i32 noundef %155)
  store i32 -1, ptr %22, align 4
  br label %157

157:                                              ; preds = %154, %144, %134, %124
  %158 = load ptr, ptr %17, align 8
  %159 = getelementptr inbounds nuw %struct.persist_msg_t, ptr %15, i32 0, i32 2
  %160 = load i16, ptr %159, align 8
  %161 = zext i16 %160 to i32
  call void @slurm_slurmdbd_free_usage_msg(ptr noundef %158, i32 noundef %161)
  br label %162

162:                                              ; preds = %157, %115
  br label %163

163:                                              ; preds = %162, %98
  br label %164

164:                                              ; preds = %163, %57
  %165 = load i32, ptr %22, align 4
  store i32 %165, ptr %7, align 4
  store i32 1, ptr %23, align 4
  br label %166

166:                                              ; preds = %164, %49
  call void @llvm.lifetime.end.p0(i64 4, ptr %22) #9
  call void @llvm.lifetime.end.p0(i64 8, ptr %21) #9
  call void @llvm.lifetime.end.p0(i64 8, ptr %20) #9
  call void @llvm.lifetime.end.p0(i64 8, ptr %19) #9
  call void @llvm.lifetime.end.p0(i64 8, ptr %18) #9
  call void @llvm.lifetime.end.p0(i64 8, ptr %17) #9
  call void @llvm.lifetime.end.p0(i64 24, ptr %16) #9
  call void @llvm.lifetime.end.p0(i64 24, ptr %15) #9
  call void @llvm.lifetime.end.p0(i64 24, ptr %14) #9
  %167 = load i32, ptr %7, align 4
  ret i32 %167
}