; Function Attrs: nounwind uwtable
define dso_local i32 @acct_storage_p_get_usage(ptr noundef %0, i32 noundef %1, ptr noundef %2, i32 noundef %3, i64 noundef %4, i64 noundef %5) local_unnamed_addr #0 {
  %7 = alloca %struct.persist_msg_t, align 8
  %8 = alloca %struct.persist_msg_t, align 8
  %9 = alloca %struct.dbd_usage_msg_t, align 8
  call void @llvm.lifetime.start.p0(i64 24, ptr nonnull %7) #11
  %10 = getelementptr inbounds nuw i8, ptr %7, i64 16
  store i64 0, ptr %10, align 8
  call void @llvm.lifetime.start.p0(i64 24, ptr nonnull %8) #11
  call void @llvm.memset.p0.i64(ptr noundef nonnull align 8 dereferenceable(24) %8, i8 0, i64 24, i1 false)
  call void @llvm.lifetime.start.p0(i64 24, ptr nonnull %9) #11
  %11 = getelementptr inbounds nuw i8, ptr %9, i64 8
  store ptr %2, ptr %11, align 8
  %12 = getelementptr inbounds nuw i8, ptr %9, i64 16
  store i64 %4, ptr %12, align 8
  store i64 %5, ptr %9, align 8
  %13 = trunc i32 %3 to i16
  %14 = getelementptr inbounds nuw i8, ptr %7, i64 16
  store i16 %13, ptr %14, align 8
  store ptr %0, ptr %7, align 8
  switch i32 %3, label %15 [
    i32 1505, label %17
    i32 1411, label %17
    i32 1457, label %17
    i32 1413, label %17
  ]

15:                                               ; preds = %6
  %16 = tail call i32 (ptr, ...) @slurm_error(ptr noundef nonnull @.str.66, i32 noundef %3) #11
  br label %67

17:                                               ; preds = %6, %6, %6, %6
  %18 = getelementptr inbounds nuw i8, ptr %7, i64 8
  store ptr %9, ptr %18, align 8
  %19 = call i32 @dbd_conn_send_recv(i16 noundef zeroext 11008, ptr noundef nonnull %7, ptr noundef nonnull %8) #11
  %.not = icmp eq i32 %19, 0
  br i1 %.not, label %23, label %20

20:                                               ; preds = %17
  %21 = call ptr @slurmdbd_msg_type_2_str(i32 noundef %3, i32 noundef 1) #11
  %22 = call i32 (ptr, ...) @slurm_error(ptr noundef nonnull @.str.67, ptr noundef %21) #11
  br label %67

23:                                               ; preds = %17
  %24 = getelementptr inbounds nuw i8, ptr %8, i64 16
  %25 = load i16, ptr %24, align 8
  switch i16 %25, label %44 [
    i16 1433, label %26
    i16 1458, label %47
    i16 1420, label %47
    i16 1418, label %47
  ]

26:                                               ; preds = %23
  %27 = getelementptr inbounds nuw i8, ptr %8, i64 8
  %28 = load ptr, ptr %27, align 8
  %29 = getelementptr inbounds nuw i8, ptr %28, i64 12
  %30 = load i32, ptr %29, align 4
  %31 = icmp eq i32 %30, 0
  br i1 %31, label %32, label %39

32:                                               ; preds = %26
  %33 = call i32 @slurm_get_log_level() #11
  %34 = icmp sgt i32 %33, 2
  br i1 %34, label %35, label %37

35:                                               ; preds = %32
  %36 = load ptr, ptr %28, align 8
  call void (i32, ptr, ...) @slurm_log_var(i32 noundef 3, ptr noundef nonnull @.str.24, ptr noundef nonnull @plugin_type, ptr noundef nonnull @__func__.acct_storage_p_get_usage, ptr noundef %36) #11
  br label %37

37:                                               ; preds = %35, %32
  %38 = call ptr @slurm_list_create(ptr noundef null) #11
  store ptr %38, ptr %2, align 8
  br label %43

39:                                               ; preds = %26
  %40 = tail call ptr @__errno_location() #12
  store i32 %30, ptr %40, align 4
  %41 = load ptr, ptr %28, align 8
  %42 = call i32 (ptr, ...) @slurm_error(ptr noundef nonnull @.str.7, ptr noundef %41) #11
  br label %43

43:                                               ; preds = %39, %37
  call void @slurm_persist_free_rc_msg(ptr noundef nonnull %28) #11
  br label %67

44:                                               ; preds = %23
  %45 = zext i16 %25 to i32
  %46 = call i32 (ptr, ...) @slurm_error(ptr noundef nonnull @.str.68, i32 noundef %45) #11
  br label %67

47:                                               ; preds = %23, %23, %23
  %48 = getelementptr inbounds nuw i8, ptr %8, i64 8
  %49 = load ptr, ptr %48, align 8
  switch i32 %3, label %62 [
    i32 1505, label %50
    i32 1411, label %50
    i32 1457, label %54
    i32 1413, label %58
  ]

50:                                               ; preds = %47, %47
  %51 = getelementptr inbounds nuw i8, ptr %49, i64 8
  %52 = load ptr, ptr %51, align 8
  %53 = load ptr, ptr %52, align 8
  store ptr %53, ptr %2, align 8
  store ptr null, ptr %52, align 8
  br label %64

54:                                               ; preds = %47
  %55 = getelementptr inbounds nuw i8, ptr %49, i64 8
  %56 = load ptr, ptr %55, align 8
  %57 = load ptr, ptr %56, align 8
  store ptr %57, ptr %2, align 8
  store ptr null, ptr %56, align 8
  br label %64

58:                                               ; preds = %47
  %59 = getelementptr inbounds nuw i8, ptr %49, i64 8
  %60 = load ptr, ptr %59, align 8
  %61 = load ptr, ptr %60, align 8
  store ptr %61, ptr %2, align 8
  store ptr null, ptr %60, align 8
  br label %64

62:                                               ; preds = %47
  %63 = call i32 (ptr, ...) @slurm_error(ptr noundef nonnull @.str.66, i32 noundef %3) #11
  br label %64

64:                                               ; preds = %62, %58, %54, %50
  %.1 = phi i32 [ -1, %62 ], [ 0, %58 ], [ 0, %54 ], [ 0, %50 ]
  %65 = load i16, ptr %24, align 8
  %66 = zext i16 %65 to i32
  call void @slurm_slurmdbd_free_usage_msg(ptr noundef %49, i32 noundef %66) #11
  br label %67

67:                                               ; preds = %20, %44, %64, %43, %15
  %.0 = phi i32 [ -1, %15 ], [ %19, %20 ], [ 0, %43 ], [ 0, %44 ], [ %.1, %64 ]
  call void @llvm.lifetime.end.p0(i64 24, ptr nonnull %9) #11
  call void @llvm.lifetime.end.p0(i64 24, ptr nonnull %8) #11
  call void @llvm.lifetime.end.p0(i64 24, ptr nonnull %7) #11
  ret i32 %.0
}